target datalayout = "e-m:e-p270:32:32-p271:32:32-p272:64:64-i64:64-i128:128-f80:128-n8:16:32:64-S128"
target triple = "x86_64-pc-linux-gnu"

%struct.JsonbInState = type { ptr, ptr, i8, ptr }
%struct.JsonbValue = type { i32, %union.anon }
%union.anon = type { %struct.anon.2 }
%struct.anon.2 = type { i32, ptr, i8 }
%struct.anon.1 = type { i32, ptr }
%struct.JsonbParseState = type { %struct.JsonbValue, i64, ptr, i8, i8 }

@.str.1 = private unnamed_addr constant [8 x i8] c"jsonb.c\00", align 1
@.str.36 = private unnamed_addr constant [24 x i8] c"invalid json token type\00", align 1
@__func__.jsonb_in_scalar = private unnamed_addr constant [16 x i8] c"jsonb_in_scalar\00", align 1
@.str.37 = private unnamed_addr constant [38 x i8] c"unexpected parent of nested structure\00", align 1
@.str.38 = private unnamed_addr constant [45 x i8] c"string too long to represent as jsonb string\00", align 1
@.str.39 = private unnamed_addr constant [76 x i8] c"Due to an implementation restriction, jsonb strings cannot exceed %d bytes.\00", align 1
@__func__.checkStringLen = private unnamed_addr constant [15 x i8] c"checkStringLen\00", align 1

; Function Attrs: inlinehint nounwind uwtable
define internal ptr @DatumGetPointer(i64 noundef %0) #2 {
  %2 = alloca i64, align 8
  store i64 %0, ptr %2, align 8
  %3 = load i64, ptr %2, align 8
  %4 = inttoptr i64 %3 to ptr
  ret ptr %4
}

; Function Attrs: inlinehint nounwind uwtable
define internal ptr @DatumGetNumeric(i64 noundef %0) #2 {
  %2 = alloca i64, align 8
  store i64 %0, ptr %2, align 8
  %3 = load i64, ptr %2, align 8
  %4 = call ptr @DatumGetPointer(i64 noundef %3)
  %5 = call ptr @pg_detoast_datum(ptr noundef %4)
  ret ptr %5
}

; Function Attrs: nounwind uwtable
define internal zeroext i1 @checkStringLen(i64 noundef %0, ptr noundef %1) #0 {
  %3 = alloca i1, align 1
  %4 = alloca i64, align 8
  %5 = alloca ptr, align 8
  %6 = alloca ptr, align 8
  store i64 %0, ptr %4, align 8
  store ptr %1, ptr %5, align 8
  %7 = load i64, ptr %4, align 8
  %8 = icmp ugt i64 %7, 268435455
  br i1 %8, label %9, label %23

9:                                                ; preds = %2
  br label %10

10:                                               ; preds = %9
  br label %11

11:                                               ; preds = %10
  call void @llvm.lifetime.start.p0(i64 8, ptr %6) #8
  %12 = load ptr, ptr %5, align 8
  store ptr %12, ptr %6, align 8
  %13 = load ptr, ptr %6, align 8
  %14 = call zeroext i1 @errsave_start(ptr noundef %13, ptr noundef null)
  br i1 %14, label %15, label %20

15:                                               ; preds = %11
  %16 = call i32 @errcode(i32 noundef 261)
  %17 = call i32 (ptr, ...) @errmsg(ptr noundef @.str.38)
  %18 = call i32 (ptr, ...) @errdetail(ptr noundef @.str.39, i32 noundef 268435455)
  %19 = load ptr, ptr %6, align 8
  call void @errsave_finish(ptr noundef %19, ptr noundef @.str.1, i32 noundef 284, ptr noundef @__func__.checkStringLen)
  br label %20

20:                                               ; preds = %15, %11
  call void @llvm.lifetime.end.p0(i64 8, ptr %6) #8
  br label %21

21:                                               ; preds = %20
  store i1 false, ptr %3, align 1
  br label %24

22:                                               ; No predecessors!
  br label %23

23:                                               ; preds = %22, %2
  store i1 true, ptr %3, align 1
  br label %24

24:                                               ; preds = %23, %21
  %25 = load i1, ptr %3, align 1
  ret i1 %25
}

; Function Attrs: nounwind uwtable
define internal i32 @jsonb_in_scalar(ptr noundef %0, ptr noundef %1, i32 noundef %2) #0 {
  %4 = alloca i32, align 4
  %5 = alloca ptr, align 8
  %6 = alloca ptr, align 8
  %7 = alloca i32, align 4
  %8 = alloca ptr, align 8
  %9 = alloca %struct.JsonbValue, align 8
  %10 = alloca i64, align 8
  %11 = alloca i32, align 4
  %12 = alloca %struct.JsonbValue, align 8
  %13 = alloca ptr, align 8
  store ptr %0, ptr %5, align 8
  store ptr %1, ptr %6, align 8
  store i32 %2, ptr %7, align 4
  call void @llvm.lifetime.start.p0(i64 8, ptr %8) #8
  %14 = load ptr, ptr %5, align 8
  store ptr %14, ptr %8, align 8
  call void @llvm.lifetime.start.p0(i64 32, ptr %9) #8
  call void @llvm.lifetime.start.p0(i64 8, ptr %10) #8
  %15 = load i32, ptr %7, align 4
  switch i32 %15, label %56 [
    i32 1, label %16
    i32 2, label %36
    i32 9, label %48
    i32 10, label %51
    i32 11, label %54
  ]

16:                                               ; preds = %3
  %17 = getelementptr inbounds nuw %struct.JsonbValue, ptr %9, i32 0, i32 0
  store i32 1, ptr %17, align 8
  %18 = load ptr, ptr %6, align 8
  %19 = call i64 @strlen(ptr noundef %18) #9
  %20 = trunc i64 %19 to i32
  %21 = getelementptr inbounds nuw %struct.JsonbValue, ptr %9, i32 0, i32 1
  %22 = getelementptr inbounds nuw %struct.anon.1, ptr %21, i32 0, i32 0
  store i32 %20, ptr %22, align 8
  %23 = getelementptr inbounds nuw %struct.JsonbValue, ptr %9, i32 0, i32 1
  %24 = getelementptr inbounds nuw %struct.anon.1, ptr %23, i32 0, i32 0
  %25 = load i32, ptr %24, align 8
  %26 = sext i32 %25 to i64
  %27 = load ptr, ptr %8, align 8
  %28 = getelementptr inbounds nuw %struct.JsonbInState, ptr %27, i32 0, i32 3
  %29 = load ptr, ptr %28, align 8
  %30 = call zeroext i1 @checkStringLen(i64 noundef %26, ptr noundef %29)
  br i1 %30, label %32, label %31

31:                                               ; preds = %16
  store i32 23, ptr %4, align 4
  store i32 1, ptr %11, align 4
  br label %126

32:                                               ; preds = %16
  %33 = load ptr, ptr %6, align 8
  %34 = getelementptr inbounds nuw %struct.JsonbValue, ptr %9, i32 0, i32 1
  %35 = getelementptr inbounds nuw %struct.anon.1, ptr %34, i32 0, i32 1
  store ptr %33, ptr %35, align 8
  br label %67

36:                                               ; preds = %3
  %37 = getelementptr inbounds nuw %struct.JsonbValue, ptr %9, i32 0, i32 0
  store i32 2, ptr %37, align 8
  %38 = load ptr, ptr %6, align 8
  %39 = load ptr, ptr %8, align 8
  %40 = getelementptr inbounds nuw %struct.JsonbInState, ptr %39, i32 0, i32 3
  %41 = load ptr, ptr %40, align 8
  %42 = call zeroext i1 @DirectInputFunctionCallSafe(ptr noundef @numeric_in, ptr noundef %38, i32 noundef 0, i32 noundef -1, ptr noundef %41, ptr noundef %10)
  br i1 %42, label %44, label %43

43:                                               ; preds = %36
  store i32 23, ptr %4, align 4
  store i32 1, ptr %11, align 4
  br label %126

44:                                               ; preds = %36
  %45 = load i64, ptr %10, align 8
  %46 = call ptr @DatumGetNumeric(i64 noundef %45)
  %47 = getelementptr inbounds nuw %struct.JsonbValue, ptr %9, i32 0, i32 1
  store ptr %46, ptr %47, align 8
  br label %67

48:                                               ; preds = %3
  %49 = getelementptr inbounds nuw %struct.JsonbValue, ptr %9, i32 0, i32 0
  store i32 3, ptr %49, align 8
  %50 = getelementptr inbounds nuw %struct.JsonbValue, ptr %9, i32 0, i32 1
  store i8 1, ptr %50, align 8
  br label %67

51:                                               ; preds = %3
  %52 = getelementptr inbounds nuw %struct.JsonbValue, ptr %9, i32 0, i32 0
  store i32 3, ptr %52, align 8
  %53 = getelementptr inbounds nuw %struct.JsonbValue, ptr %9, i32 0, i32 1
  store i8 0, ptr %53, align 8
  br label %67

54:                                               ; preds = %3
  %55 = getelementptr inbounds nuw %struct.JsonbValue, ptr %9, i32 0, i32 0
  store i32 0, ptr %55, align 8
  br label %67

56:                                               ; preds = %3
  br label %57

57:                                               ; preds = %56
  br i1 true, label %58, label %60

58:                                               ; preds = %57
  %59 = call zeroext i1 @errstart_cold(i32 noundef 21, ptr noundef null) #10
  br i1 %59, label %62, label %64

60:                                               ; preds = %57
  %61 = call zeroext i1 @errstart(i32 noundef 21, ptr noundef null)
  br i1 %61, label %62, label %64

62:                                               ; preds = %60, %58
  %63 = call i32 (ptr, ...) @errmsg_internal(ptr noundef @.str.36)
  call void @errfinish(ptr noundef @.str.1, i32 noundef 424, ptr noundef @__func__.jsonb_in_scalar)
  br label %64

64:                                               ; preds = %62, %60, %58
  unreachable

65:                                               ; No predecessors!
  br label %66

66:                                               ; preds = %65
  br label %67

67:                                               ; preds = %66, %54, %51, %48, %44, %32
  %68 = load ptr, ptr %8, align 8
  %69 = getelementptr inbounds nuw %struct.JsonbInState, ptr %68, i32 0, i32 0
  %70 = load ptr, ptr %69, align 8
  %71 = icmp eq ptr %70, null
  br i1 %71, label %72, label %93

72:                                               ; preds = %67
  call void @llvm.lifetime.start.p0(i64 32, ptr %12) #8
  %73 = getelementptr inbounds nuw %struct.JsonbValue, ptr %12, i32 0, i32 0
  store i32 16, ptr %73, align 8
  %74 = getelementptr inbounds nuw %struct.JsonbValue, ptr %12, i32 0, i32 1
  %75 = getelementptr inbounds nuw %struct.anon.2, ptr %74, i32 0, i32 2
  store i8 1, ptr %75, align 8
  %76 = getelementptr inbounds nuw %struct.JsonbValue, ptr %12, i32 0, i32 1
  %77 = getelementptr inbounds nuw %struct.anon.2, ptr %76, i32 0, i32 0
  store i32 1, ptr %77, align 8
  %78 = load ptr, ptr %8, align 8
  %79 = getelementptr inbounds nuw %struct.JsonbInState, ptr %78, i32 0, i32 0
  %80 = call ptr @pushJsonbValue(ptr noundef %79, i32 noundef 4, ptr noundef %12)
  %81 = load ptr, ptr %8, align 8
  %82 = getelementptr inbounds nuw %struct.JsonbInState, ptr %81, i32 0, i32 1
  store ptr %80, ptr %82, align 8
  %83 = load ptr, ptr %8, align 8
  %84 = getelementptr inbounds nuw %struct.JsonbInState, ptr %83, i32 0, i32 0
  %85 = call ptr @pushJsonbValue(ptr noundef %84, i32 noundef 3, ptr noundef %9)
  %86 = load ptr, ptr %8, align 8
  %87 = getelementptr inbounds nuw %struct.JsonbInState, ptr %86, i32 0, i32 1
  store ptr %85, ptr %87, align 8
  %88 = load ptr, ptr %8, align 8
  %89 = getelementptr inbounds nuw %struct.JsonbInState, ptr %88, i32 0, i32 0
  %90 = call ptr @pushJsonbValue(ptr noundef %89, i32 noundef 5, ptr noundef null)
  %91 = load ptr, ptr %8, align 8
  %92 = getelementptr inbounds nuw %struct.JsonbInState, ptr %91, i32 0, i32 1
  store ptr %90, ptr %92, align 8
  call void @llvm.lifetime.end.p0(i64 32, ptr %12) #8
  br label %125

93:                                               ; preds = %67
  call void @llvm.lifetime.start.p0(i64 8, ptr %13) #8
  %94 = load ptr, ptr %8, align 8
  %95 = getelementptr inbounds nuw %struct.JsonbInState, ptr %94, i32 0, i32 0
  %96 = load ptr, ptr %95, align 8
  %97 = getelementptr inbounds nuw %struct.JsonbParseState, ptr %96, i32 0, i32 0
  store ptr %97, ptr %13, align 8
  %98 = load ptr, ptr %13, align 8
  %99 = getelementptr inbounds nuw %struct.JsonbValue, ptr %98, i32 0, i32 0
  %100 = load i32, ptr %99, align 8
  switch i32 %100, label %113 [
    i32 16, label %101
    i32 17, label %107
  ]

101:                                              ; preds = %93
  %102 = load ptr, ptr %8, align 8
  %103 = getelementptr inbounds nuw %struct.JsonbInState, ptr %102, i32 0, i32 0
  %104 = call ptr @pushJsonbValue(ptr noundef %103, i32 noundef 3, ptr noundef %9)
  %105 = load ptr, ptr %8, align 8
  %106 = getelementptr inbounds nuw %struct.JsonbInState, ptr %105, i32 0, i32 1
  store ptr %104, ptr %106, align 8
  br label %124

107:                                              ; preds = %93
  %108 = load ptr, ptr %8, align 8
  %109 = getelementptr inbounds nuw %struct.JsonbInState, ptr %108, i32 0, i32 0
  %110 = call ptr @pushJsonbValue(ptr noundef %109, i32 noundef 2, ptr noundef %9)
  %111 = load ptr, ptr %8, align 8
  %112 = getelementptr inbounds nuw %struct.JsonbInState, ptr %111, i32 0, i32 1
  store ptr %110, ptr %112, align 8
  br label %124

113:                                              ; preds = %93
  br label %114

114:                                              ; preds = %113
  br i1 true, label %115, label %117

115:                                              ; preds = %114
  %116 = call zeroext i1 @errstart_cold(i32 noundef 21, ptr noundef null) #10
  br i1 %116, label %119, label %121

117:                                              ; preds = %114
  %118 = call zeroext i1 @errstart(i32 noundef 21, ptr noundef null)
  br i1 %118, label %119, label %121

119:                                              ; preds = %117, %115
  %120 = call i32 (ptr, ...) @errmsg_internal(ptr noundef @.str.37)
  call void @errfinish(ptr noundef @.str.1, i32 noundef 454, ptr noundef @__func__.jsonb_in_scalar)
  br label %121

121:                                              ; preds = %119, %117, %115
  unreachable

122:                                              ; No predecessors!
  br label %123

123:                                              ; preds = %122
  br label %124

124:                                              ; preds = %123, %107, %101
  call void @llvm.lifetime.end.p0(i64 8, ptr %13) #8
  br label %125

125:                                              ; preds = %124, %72
  store i32 0, ptr %4, align 4
  store i32 1, ptr %11, align 4
  br label %126

126:                                              ; preds = %125, %43, %31
  call void @llvm.lifetime.end.p0(i64 8, ptr %10) #8
  call void @llvm.lifetime.end.p0(i64 32, ptr %9) #8
  call void @llvm.lifetime.end.p0(i64 8, ptr %8) #8
  %127 = load i32, ptr %4, align 4
  ret i32 %127
}