; Function Attrs: nounwind uwtable
define internal range(i32 0, 24) i32 @jsonb_in_scalar(ptr noundef %0, ptr noundef %1, i32 noundef %2) #0 {
  %4 = alloca %struct.JsonbValue, align 8
  %5 = alloca i64, align 8
  %6 = alloca %struct.JsonbValue, align 8
  call void @llvm.lifetime.start.p0(i64 32, ptr nonnull %4) #11
  call void @llvm.lifetime.start.p0(i64 8, ptr nonnull %5) #11
  switch i32 %2, label %36 [
    i32 1, label %7
    i32 2, label %22
    i32 9, label %31
    i32 10, label %33
    i32 11, label %35
  ]

7:                                                ; preds = %3
  store i32 1, ptr %4, align 8
  %8 = tail call i64 @strlen(ptr noundef nonnull dereferenceable(1) %1) #10
  %9 = trunc i64 %8 to i32
  %10 = getelementptr inbounds nuw i8, ptr %4, i64 8
  store i32 %9, ptr %10, align 8
  %11 = getelementptr inbounds nuw i8, ptr %0, i64 24
  %12 = load ptr, ptr %11, align 8
  %13 = and i64 %8, 4026531840
  %14 = icmp eq i64 %13, 0
  br i1 %14, label %checkStringLen.exit, label %15

15:                                               ; preds = %7
  %16 = tail call zeroext i1 @errsave_start(ptr noundef %12, ptr noundef null) #11
  br i1 %16, label %17, label %checkStringLen.exit.thread

17:                                               ; preds = %15
  %18 = tail call i32 @errcode(i32 noundef 261) #11
  %19 = tail call i32 (ptr, ...) @errmsg(ptr noundef nonnull @.str.38) #11
  %20 = tail call i32 (ptr, ...) @errdetail(ptr noundef nonnull @.str.39, i32 noundef 268435455) #11
  tail call void @errsave_finish(ptr noundef %12, ptr noundef nonnull @.str.1, i32 noundef 284, ptr noundef nonnull @__func__.checkStringLen) #11
  br label %checkStringLen.exit.thread

checkStringLen.exit:                              ; preds = %7
  %21 = getelementptr inbounds nuw i8, ptr %4, i64 16
  store ptr %1, ptr %21, align 8
  br label %39

22:                                               ; preds = %3
  store i32 2, ptr %4, align 8
  %23 = getelementptr inbounds nuw i8, ptr %0, i64 24
  %24 = load ptr, ptr %23, align 8
  %25 = call zeroext i1 @DirectInputFunctionCallSafe(ptr noundef nonnull @numeric_in, ptr noundef %1, i32 noundef 0, i32 noundef -1, ptr noundef %24, ptr noundef nonnull %5) #11
  br i1 %25, label %26, label %checkStringLen.exit.thread

26:                                               ; preds = %22
  %27 = load i64, ptr %5, align 8
  %28 = inttoptr i64 %27 to ptr
  %29 = call ptr @pg_detoast_datum(ptr noundef %28) #11
  %30 = getelementptr inbounds nuw i8, ptr %4, i64 8
  store ptr %29, ptr %30, align 8
  br label %39

31:                                               ; preds = %3
  store i32 3, ptr %4, align 8
  %32 = getelementptr inbounds nuw i8, ptr %4, i64 8
  store i8 1, ptr %32, align 8
  br label %39

33:                                               ; preds = %3
  store i32 3, ptr %4, align 8
  %34 = getelementptr inbounds nuw i8, ptr %4, i64 8
  store i8 0, ptr %34, align 8
  br label %39

35:                                               ; preds = %3
  store i32 0, ptr %4, align 8
  br label %39

36:                                               ; preds = %3
  %37 = tail call zeroext i1 @errstart_cold(i32 noundef 21, ptr noundef null) #12
  tail call void @llvm.assume(i1 %37)
  %38 = tail call i32 (ptr, ...) @errmsg_internal(ptr noundef nonnull @.str.36) #11
  tail call void @errfinish(ptr noundef nonnull @.str.1, i32 noundef 424, ptr noundef nonnull @__func__.jsonb_in_scalar) #11
  unreachable

39:                                               ; preds = %35, %33, %31, %26, %checkStringLen.exit
  %40 = load ptr, ptr %0, align 8
  %41 = icmp eq ptr %40, null
  br i1 %41, label %42, label %49

42:                                               ; preds = %39
  call void @llvm.lifetime.start.p0(i64 32, ptr nonnull %6) #11
  store i32 16, ptr %6, align 8
  %43 = getelementptr inbounds nuw i8, ptr %6, i64 8
  %44 = getelementptr inbounds nuw i8, ptr %6, i64 24
  store i8 1, ptr %44, align 8
  store i32 1, ptr %43, align 8
  %45 = call ptr @pushJsonbValue(ptr noundef nonnull %0, i32 noundef 4, ptr noundef nonnull %6) #11
  %46 = getelementptr inbounds nuw i8, ptr %0, i64 8
  store ptr %45, ptr %46, align 8
  %47 = call ptr @pushJsonbValue(ptr noundef nonnull %0, i32 noundef 3, ptr noundef nonnull %4) #11
  store ptr %47, ptr %46, align 8
  %48 = call ptr @pushJsonbValue(ptr noundef nonnull %0, i32 noundef 5, ptr noundef null) #11
  store ptr %48, ptr %46, align 8
  call void @llvm.lifetime.end.p0(i64 32, ptr nonnull %6) #11
  br label %checkStringLen.exit.thread

49:                                               ; preds = %39
  %50 = load i32, ptr %40, align 8
  switch i32 %50, label %57 [
    i32 16, label %51
    i32 17, label %54
  ]

51:                                               ; preds = %49
  %52 = call ptr @pushJsonbValue(ptr noundef nonnull %0, i32 noundef 3, ptr noundef nonnull %4) #11
  %53 = getelementptr inbounds nuw i8, ptr %0, i64 8
  store ptr %52, ptr %53, align 8
  br label %checkStringLen.exit.thread

54:                                               ; preds = %49
  %55 = call ptr @pushJsonbValue(ptr noundef nonnull %0, i32 noundef 2, ptr noundef nonnull %4) #11
  %56 = getelementptr inbounds nuw i8, ptr %0, i64 8
  store ptr %55, ptr %56, align 8
  br label %checkStringLen.exit.thread

57:                                               ; preds = %49
  %58 = call zeroext i1 @errstart_cold(i32 noundef 21, ptr noundef null) #12
  call void @llvm.assume(i1 %58)
  %59 = call i32 (ptr, ...) @errmsg_internal(ptr noundef nonnull @.str.37) #11
  call void @errfinish(ptr noundef nonnull @.str.1, i32 noundef 454, ptr noundef nonnull @__func__.jsonb_in_scalar) #11
  unreachable

checkStringLen.exit.thread:                       ; preds = %17, %15, %42, %54, %51, %22
  %.0 = phi i32 [ 23, %22 ], [ 0, %51 ], [ 0, %54 ], [ 0, %42 ], [ 23, %15 ], [ 23, %17 ]
  call void @llvm.lifetime.end.p0(i64 8, ptr nonnull %5) #11
  call void @llvm.lifetime.end.p0(i64 32, ptr nonnull %4) #11
  ret i32 %.0
}